Certificate:
    Data:
        Version: 3 (0x2)
        Serial Number:
            06:d2:38:3c:c3:63:4d:01:88:b1:ec:5a:09:b8:e0:0d
        Signature Algorithm: sha256WithRSAEncryption
        Issuer: CN=Easy-RSA CA
        Validity
            Not Before: Jun  2 16:15:43 2026 GMT
            Not After : Sep  4 16:15:43 2028 GMT
        Subject: CN=client1
        Subject Public Key Info:
            Public Key Algorithm: rsaEncryption
                RSA Public-Key: (2048 bit)
                Modulus:
                    00:e2:90:6d:4a:76:78:4d:f4:65:22:64:35:21:3b:
                    9d:c9:6c:bf:85:3b:e6:e8:36:11:06:68:01:91:44:
                    2f:aa:10:ec:ba:25:4b:7e:b1:0a:a0:70:95:0b:23:
                    31:fd:cc:ff:04:08:f7:c7:e4:69:74:49:75:32:f8:
                    3a:8c:61:01:09:2d:eb:60:05:d0:6c:49:56:4d:7b:
                    8d:f9:cd:6f:2c:d5:97:d3:b6:ce:7b:be:46:44:18:
                    be:08:a7:40:8a:91:98:7e:d3:b4:d3:84:50:22:0b:
                    b7:56:33:7c:7e:c7:26:73:73:05:5b:cc:c5:f2:19:
                    fa:09:7b:85:13:cd:85:e9:8b:13:a7:e4:c9:98:8d:
                    83:84:b3:89:dc:60:f1:20:1f:1a:9b:45:ac:a4:30:
                    82:d9:78:2f:6d:a3:24:6b:e2:f8:d3:b3:94:fd:96:
                    53:b2:b6:d1:63:f1:fa:2e:5e:d0:56:7c:b2:59:ff:
                    9f:de:00:e0:27:b9:62:a0:49:f8:46:c9:f8:0e:8d:
                    79:63:46:12:c4:53:14:ae:5f:ab:60:43:9e:fc:18:
                    4d:3d:1b:5a:e0:78:b1:d4:b4:b5:63:16:6f:68:83:
                    18:07:32:ca:a2:54:6c:c7:55:c2:13:3f:50:0d:99:
                    6c:f6:38:74:e2:6d:35:4b:4d:ad:37:9e:af:50:25:
                    5a:7f
                Exponent: 65537 (0x10001)
        X509v3 extensions:
            X509v3 Basic Constraints: 
                CA:FALSE
            X509v3 Subject Key Identifier: 
                90:D0:44:30:5C:26:C0:12:4C:3A:A3:63:73:99:6E:98:70:41:EF:80
            X509v3 Authority Key Identifier: 
                keyid:E7:61:FF:B6:DA:C5:02:EF:F6:09:AC:A3:90:87:CE:71:F1:2C:F9:70
                DirName:/CN=Easy-RSA CA
                serial:6C:81:EA:5F:C6:4C:65:D9:0C:B4:DC:82:0C:E5:7C:8E:03:0D:FC:DB

            X509v3 Extended Key Usage: 
                TLS Web Client Authentication
            X509v3 Key Usage: 
                Digital Signature
    Signature Algorithm: sha256WithRSAEncryption
         60:49:0b:ca:b8:9c:53:a7:8d:a9:57:01:a7:a8:ec:dd:83:6c:
         69:2e:56:7d:80:f0:bb:27:23:34:2c:88:1b:94:d5:88:b3:1c:
         17:32:1c:e4:00:ff:3c:37:7f:8c:bc:54:71:cf:d8:88:d6:b3:
         2f:f4:b3:1d:56:2c:f3:73:3d:a0:6c:d9:89:fc:e2:17:23:73:
         3a:c4:9c:67:6b:27:c5:3a:c1:17:20:ba:ab:0d:50:22:76:aa:
         c2:2b:4c:99:82:76:df:39:a4:b3:e2:72:8c:2a:12:71:e8:5e:
         92:b9:d3:21:ce:fe:76:b2:62:72:fd:ee:4d:8c:a2:55:01:f9:
         9e:6b:1e:a1:64:10:72:c5:fd:c6:d5:f7:10:f3:48:42:74:5d:
         08:01:81:82:b1:b1:42:d4:e6:b8:89:cc:b4:2b:dd:17:cf:76:
         a7:61:0f:ff:52:a2:3f:18:62:c8:5e:36:40:c9:ed:52:47:4a:
         92:13:a9:a8:cf:9f:19:ac:7c:13:ab:c7:12:30:bd:1c:4b:87:
         e7:64:d8:2d:7f:29:9b:2b:1f:e1:85:f6:7b:34:78:64:f2:cf:
         f7:6d:3d:2b:87:5c:e3:8c:e0:d2:97:4d:98:12:20:c7:d7:22:
         05:b1:e7:3c:eb:50:6e:08:b2:e4:3b:7e:04:c4:b3:8c:67:32:
         bf:76:dd:37
-----BEGIN CERTIFICATE-----
MIIDVTCCAj2gAwIBAgIQBtI4PMNjTQGIsexaCbjgDTANBgkqhkiG9w0BAQsFADAW
MRQwEgYDVQQDDAtFYXN5LVJTQSBDQTAeFw0yNjA2MDIxNjE1NDNaFw0yODA5MDQx
NjE1NDNaMBIxEDAOBgNVBAMMB2NsaWVudDEwggEiMA0GCSqGSIb3DQEBAQUAA4IB
DwAwggEKAoIBAQDikG1KdnhN9GUiZDUhO53JbL+FO+boNhEGaAGRRC+qEOy6JUt+
sQqgcJULIzH9zP8ECPfH5Gl0SXUy+DqMYQEJLetgBdBsSVZNe435zW8s1ZfTts57
vkZEGL4Ip0CKkZh+07TThFAiC7dWM3x+xyZzcwVbzMXyGfoJe4UTzYXpixOn5MmY
jYOEs4ncYPEgHxqbRaykMILZeC9toyRr4vjTs5T9llOyttFj8fouXtBWfLJZ/5/e
AOAnuWKgSfhGyfgOjXljRhLEUxSuX6tgQ578GE09G1rgeLHUtLVjFm9ogxgHMsqi
VGzHVcITP1ANmWz2OHTibTVLTa03nq9QJVp/AgMBAAGjgaIwgZ8wCQYDVR0TBAIw
ADAdBgNVHQ4EFgQUkNBEMFwmwBJMOqNjc5lumHBB74AwUQYDVR0jBEowSIAU52H/
ttrFAu/2CayjkIfOcfEs+XChGqQYMBYxFDASBgNVBAMMC0Vhc3ktUlNBIENBghRs
gepfxkxl2Qy03IIM5XyOAw382zATBgNVHSUEDDAKBggrBgEFBQcDAjALBgNVHQ8E
BAMCB4AwDQYJKoZIhvcNAQELBQADggEBAGBJC8q4nFOnjalXAaeo7N2DbGkuVn2A
8LsnIzQsiBuU1YizHBcyHOQA/zw3f4y8VHHP2IjWsy/0sx1WLPNzPaBs2Yn84hcj
czrEnGdrJ8U6wRcguqsNUCJ2qsIrTJmCdt85pLPicowqEnHoXpK50yHO/nayYnL9
7k2MolUB+Z5rHqFkEHLF/cbV9xDzSEJ0XQgBgYKxsULU5riJzLQr3RfPdqdhD/9S
oj8YYsheNkDJ7VJHSpITqajPnxmsfBOrxxIwvRxLh+dk2C1/KZsrH+GF9ns0eGTy
z/dtPSuHXOOM4NKXTZgSIMfXIgWx5zzrUG4IsuQ7fgTEs4xnMr923Tc=
-----END CERTIFICATE-----
