Certificate:
    Data:
        Version: 3 (0x2)
        Serial Number:
            80:df:3b:98:ca:48:ea:15:48:29:35:ef:23:52:ed:90
        Signature Algorithm: sha256WithRSAEncryption
        Issuer: CN=Easy-RSA CA
        Validity
            Not Before: Jun  2 16:14:24 2026 GMT
            Not After : Sep  4 16:14:24 2028 GMT
        Subject: CN=localhost
        Subject Public Key Info:
            Public Key Algorithm: rsaEncryption
                RSA Public-Key: (2048 bit)
                Modulus:
                    00:c9:15:2b:ef:ab:b7:1d:78:6b:bf:23:29:90:16:
                    1f:56:9d:fc:29:da:2b:04:63:1c:0b:cb:e2:b7:40:
                    05:b2:d1:0d:a9:c1:11:97:2d:b8:f5:8a:aa:a7:b4:
                    22:c2:fe:2e:c6:6d:46:c6:12:14:25:62:34:a6:07:
                    5c:fb:92:49:d1:bd:2f:24:7f:5f:3a:2e:f1:d5:e4:
                    62:55:65:af:a8:f3:d4:88:1e:e0:27:6f:0d:7a:ea:
                    86:6c:df:ea:58:08:3b:54:82:1c:ee:1c:2b:60:da:
                    2a:8a:21:21:aa:e0:fd:06:fd:49:ba:6f:b8:3d:47:
                    2b:55:a0:01:ac:e7:2d:d5:79:48:b0:42:d4:27:58:
                    57:cd:4d:6d:93:df:e7:9f:3b:17:66:62:95:8c:07:
                    19:bd:09:cf:69:a1:a4:44:1a:9c:ac:1c:09:33:fc:
                    31:4d:14:69:71:6c:a5:28:70:31:46:aa:33:eb:53:
                    ae:38:6e:5f:8d:06:a3:45:6b:96:c1:ce:41:d6:16:
                    7f:e7:a5:b6:98:41:08:a1:91:31:4f:1f:1d:4b:ef:
                    26:1e:4f:ba:bf:fc:0f:40:e3:ae:92:5d:ab:01:9b:
                    bc:b4:76:65:9f:98:25:b5:ad:e9:e2:9f:3f:26:c8:
                    9a:27:77:0b:c4:a9:2b:44:1e:d0:2d:13:82:2c:52:
                    58:33
                Exponent: 65537 (0x10001)
        X509v3 extensions:
            X509v3 Basic Constraints: 
                CA:FALSE
            X509v3 Subject Key Identifier: 
                11:55:85:56:06:90:D8:DC:00:EE:55:4C:24:1F:35:F1:C4:78:6B:04
            X509v3 Authority Key Identifier: 
                keyid:E7:61:FF:B6:DA:C5:02:EF:F6:09:AC:A3:90:87:CE:71:F1:2C:F9:70
                DirName:/CN=Easy-RSA CA
                serial:6C:81:EA:5F:C6:4C:65:D9:0C:B4:DC:82:0C:E5:7C:8E:03:0D:FC:DB

            X509v3 Extended Key Usage: 
                TLS Web Server Authentication
            X509v3 Key Usage: 
                Digital Signature, Key Encipherment
            X509v3 Subject Alternative Name: 
                DNS:localhost
    Signature Algorithm: sha256WithRSAEncryption
         39:ec:83:51:de:2b:84:06:41:64:9d:7c:a3:15:c6:55:05:48:
         bc:92:14:9d:a8:99:85:1e:52:6d:c1:ab:e9:95:7e:e0:64:77:
         91:e7:43:81:57:2a:f2:03:6a:a8:a3:37:1e:12:d4:5a:1e:d6:
         cc:8f:39:5f:f4:19:d5:7f:b8:a4:f8:90:60:08:94:87:e6:7e:
         93:78:2f:e1:05:a5:5c:5e:8b:59:8e:6a:f8:fa:9f:53:d8:b8:
         29:4b:47:90:42:9b:0f:d9:76:c7:bc:78:8b:1b:ee:85:05:90:
         b0:d1:9c:a7:8c:82:d4:1f:d8:cd:36:f9:d0:15:b6:ad:87:99:
         54:19:04:2f:11:52:ae:59:c8:6f:f7:8d:d8:bb:58:74:a8:44:
         85:d9:6f:a0:ca:d6:80:29:e1:d6:9c:6b:7a:ab:8c:7f:76:7c:
         fd:f8:ed:ab:9b:3f:c0:17:61:28:1a:f6:7d:39:39:7c:ad:20:
         a8:1a:aa:71:81:a0:5e:d4:ef:64:b7:5b:2c:92:14:2f:83:e4:
         97:10:db:dc:96:d6:89:a3:cb:a6:80:30:f8:dd:38:c7:85:a5:
         cf:16:71:4e:e8:6f:4b:1b:61:ca:48:ad:94:3f:b0:1d:0e:17:
         6e:ab:0f:18:f1:b2:a6:6a:eb:3a:73:a1:1c:80:98:02:f9:35:
         dc:44:43:84
-----BEGIN CERTIFICATE-----
MIIDbjCCAlagAwIBAgIRAIDfO5jKSOoVSCk17yNS7ZAwDQYJKoZIhvcNAQELBQAw
FjEUMBIGA1UEAwwLRWFzeS1SU0EgQ0EwHhcNMjYwNjAyMTYxNDI0WhcNMjgwOTA0
MTYxNDI0WjAUMRIwEAYDVQQDDAlsb2NhbGhvc3QwggEiMA0GCSqGSIb3DQEBAQUA
A4IBDwAwggEKAoIBAQDJFSvvq7cdeGu/IymQFh9Wnfwp2isEYxwLy+K3QAWy0Q2p
wRGXLbj1iqqntCLC/i7GbUbGEhQlYjSmB1z7kknRvS8kf186LvHV5GJVZa+o89SI
HuAnbw166oZs3+pYCDtUghzuHCtg2iqKISGq4P0G/Um6b7g9RytVoAGs5y3VeUiw
QtQnWFfNTW2T3+efOxdmYpWMBxm9Cc9poaREGpysHAkz/DFNFGlxbKUocDFGqjPr
U644bl+NBqNFa5bBzkHWFn/npbaYQQihkTFPHx1L7yYeT7q//A9A466SXasBm7y0
dmWfmCW1reninz8myJondwvEqStEHtAtE4IsUlgzAgMBAAGjgbgwgbUwCQYDVR0T
BAIwADAdBgNVHQ4EFgQUEVWFVgaQ2NwA7lVMJB818cR4awQwUQYDVR0jBEowSIAU
52H/ttrFAu/2CayjkIfOcfEs+XChGqQYMBYxFDASBgNVBAMMC0Vhc3ktUlNBIENB
ghRsgepfxkxl2Qy03IIM5XyOAw382zATBgNVHSUEDDAKBggrBgEFBQcDATALBgNV
HQ8EBAMCBaAwFAYDVR0RBA0wC4IJbG9jYWxob3N0MA0GCSqGSIb3DQEBCwUAA4IB
AQA57INR3iuEBkFknXyjFcZVBUi8khSdqJmFHlJtwavplX7gZHeR50OBVyryA2qo
ozceEtRaHtbMjzlf9BnVf7ik+JBgCJSH5n6TeC/hBaVcXotZjmr4+p9T2LgpS0eQ
QpsP2XbHvHiLG+6FBZCw0ZynjILUH9jNNvnQFbath5lUGQQvEVKuWchv943Yu1h0
qESF2W+gytaAKeHWnGt6q4x/dnz9+O2rmz/AF2EoGvZ9OTl8rSCoGqpxgaBe1O9k
t1sskhQvg+SXENvcltaJo8umgDD43TjHhaXPFnFO6G9LG2HKSK2UP7AdDhduqw8Y
8bKmaus6c6EcgJgC+TXcREOE
-----END CERTIFICATE-----
